(lp0
(dp1
S'connection'
p2
S'549175'
p3
sS'cache'
p4
(dp5
sS'pageref'
p6
S'page_5'
p7
sS'startedDateTime'
p8
S'2016-01-05T00:14:10.952Z'
p9
sS'time'
p10
F567.4090000102296
sS'request'
p11
(dp12
S'headers'
p13
(lp14
(dp15
S'name'
p16
S':path'
p17
sS'value'
p18
S'/r/getEntities'
p19
sa(dp20
g16
S'origin'
p21
sg18
S'https://www.ingress.com'
p22
sa(dp23
g16
S'accept-encoding'
p24
sg18
S'gzip, deflate'
p25
sa(dp26
g16
S'x-requested-with'
p27
sg18
S'XMLHttpRequest'
p28
sa(dp29
g16
S'accept-language'
p30
sg18
S'en-US,en;q=0.8'
p31
sa(dp32
g16
S'user-agent'
p33
sg18
S'Mozilla/5.0 (Windows NT 6.1; Win64; x64) AppleWebKit/537.36 (KHTML, like Gecko) Chrome/47.0.2526.106 Safari/537.36'
p34
sa(dp35
g16
S'x-csrftoken'
p36
sg18
S'koImgFuXExoQnGAOrorxfxVIyH7ScTvk'
p37
sa(dp38
g16
S'content-type'
p39
sg18
S'application/json; charset=UTF-8'
p40
sa(dp41
g16
S'accept'
p42
sg18
S'application/json, text/javascript, */*; q=0.01'
p43
sa(dp44
g16
S'referer'
p45
sg18
S'https://www.ingress.com/intel'
p46
sa(dp47
g16
S':authority'
p48
sg18
S'www.ingress.com'
p49
sa(dp50
g16
S'cookie'
p51
sg18
S'_ga=GA1.2.1222543458.1450299426; SACSID=AJKiYcGP7--QXcQb23aKOvWxJsSiYysueYiJZz2lZUNeK1qnXQFx77kw6HnNLVvZ0GpcsLBvXwYT1dh81F6VnxBVN478wgdxTAZxIge1_VoWHauxQpmIwxD1PSXXicNwqGWNT1mU9J7-_T1RZtwM9KonZclLDULlWC1cwLyX_uXpiRYfH3KJlX68m4ATzC0suw-UDLeRukcPefUQFaocRUgmF_MhHD_e6EZkM4xIsTkuLrT0qxCz6kH8a4eBy7nMEx-nnFBCsrgmS8YG2cmOBkuXD4T7jeoVwv4jCxH8in_LNNXLNu-175GiBeqXjUKniqW1K9UTrtqFNhoNWIpCp7vnR7YXOk5sLcDOZUemlD3nhbqVk7P_FFoREa_OPPX-3sVQqX5F4pBute7KkxufGrv_StgIcfRr49sqAgSHxocX9wMF973Y4v_zMHxdmPJoJdjbmOW2w-BTlsJC-jhju6VY0DDbEPDiDp1yBWmUViPcXfpdd4p6OR7c5cWKCf3gxjIT7KFQWr9U380SBe0tJieWzq8uR_KAsNs09noyVd4dOxbGf90lRcboZxxasVhmjmVDhufdNaPVQHcM_9QU5IDZnm493VauDNew4ABFm20n8T5G1HYlDZ3A7oIBykW_dawKgnL58sDtcZOYyd4IvNG0pIl4UrnUKN5_WAYlOnO0n5BkWSLR7NGy89DxvbWQHbPrTFQq0Ft8; __utmt=1; csrftoken=koImgFuXExoQnGAOrorxfxVIyH7ScTvk; __utma=24037858.1222543458.1450299426.1451950232.1451952675.43; __utmb=24037858.6.9.1451952846599; __utmc=24037858; __utmz=24037858.1450299426.1.1.utmcsr=(direct)|utmccn=(direct)|utmcmd=(none); ingress.intelmap.lat=33.43470042247452; ingress.intelmap.lng=-111.8133544921875; ingress.intelmap.zoom=14'
p52
sa(dp53
g16
S':scheme'
p54
sg18
S'https'
p55
sa(dp56
g16
S'content-length'
p57
sg18
S'636'
p58
sa(dp59
g16
S':method'
p60
sg18
S'POST'
p61
sasS'cookies'
p62
(lp63
(dp64
S'httpOnly'
p65
I00
sS'expires'
p66
Nsg16
S'_ga'
p67
sg18
S'GA1.2.1222543458.1450299426'
p68
sS'secure'
p69
I00
sa(dp70
g65
I00
sg66
Nsg16
S'SACSID'
p71
sg18
S'AJKiYcGP7--QXcQb23aKOvWxJsSiYysueYiJZz2lZUNeK1qnXQFx77kw6HnNLVvZ0GpcsLBvXwYT1dh81F6VnxBVN478wgdxTAZxIge1_VoWHauxQpmIwxD1PSXXicNwqGWNT1mU9J7-_T1RZtwM9KonZclLDULlWC1cwLyX_uXpiRYfH3KJlX68m4ATzC0suw-UDLeRukcPefUQFaocRUgmF_MhHD_e6EZkM4xIsTkuLrT0qxCz6kH8a4eBy7nMEx-nnFBCsrgmS8YG2cmOBkuXD4T7jeoVwv4jCxH8in_LNNXLNu-175GiBeqXjUKniqW1K9UTrtqFNhoNWIpCp7vnR7YXOk5sLcDOZUemlD3nhbqVk7P_FFoREa_OPPX-3sVQqX5F4pBute7KkxufGrv_StgIcfRr49sqAgSHxocX9wMF973Y4v_zMHxdmPJoJdjbmOW2w-BTlsJC-jhju6VY0DDbEPDiDp1yBWmUViPcXfpdd4p6OR7c5cWKCf3gxjIT7KFQWr9U380SBe0tJieWzq8uR_KAsNs09noyVd4dOxbGf90lRcboZxxasVhmjmVDhufdNaPVQHcM_9QU5IDZnm493VauDNew4ABFm20n8T5G1HYlDZ3A7oIBykW_dawKgnL58sDtcZOYyd4IvNG0pIl4UrnUKN5_WAYlOnO0n5BkWSLR7NGy89DxvbWQHbPrTFQq0Ft8'
p72
sg69
I00
sa(dp73
g65
I00
sg66
Nsg16
S'__utmt'
p74
sg18
S'1'
p75
sg69
I00
sa(dp76
g65
I00
sg66
Nsg16
S'csrftoken'
p77
sg18
g37
sg69
I00
sa(dp78
g65
I00
sg66
Nsg16
S'__utma'
p79
sg18
S'24037858.1222543458.1450299426.1451950232.1451952675.43'
p80
sg69
I00
sa(dp81
g65
I00
sg66
Nsg16
S'__utmb'
p82
sg18
S'24037858.6.9.1451952846599'
p83
sg69
I00
sa(dp84
g65
I00
sg66
Nsg16
S'__utmc'
p85
sg18
S'24037858'
p86
sg69
I00
sa(dp87
g65
I00
sg66
Nsg16
S'__utmz'
p88
sg18
S'24037858.1450299426.1.1.utmcsr=(direct)|utmccn=(direct)|utmcmd=(none)'
p89
sg69
I00
sa(dp90
g65
I00
sg66
Nsg16
S'ingress.intelmap.lat'
p91
sg18
S'33.43470042247452'
p92
sg69
I00
sa(dp93
g65
I00
sg66
Nsg16
S'ingress.intelmap.lng'
p94
sg18
S'-111.8133544921875'
p95
sg69
I00
sa(dp96
g65
I00
sg66
Nsg16
S'ingress.intelmap.zoom'
p97
sg18
S'14'
p98
sg69
I00
sasS'postData'
p99
(dp100
S'mimeType'
p101
g40
sS'text'
p102
S'{"tileKeys":["13_3030_6421_2_8_100","13_3030_6422_2_8_100","13_3031_6421_2_8_100","13_3029_6421_2_8_100","13_3030_6420_2_8_100","13_3031_6422_2_8_100","13_3029_6422_2_8_100","13_3031_6420_2_8_100","13_3029_6420_2_8_100","13_3030_6423_2_8_100","13_3032_6421_2_8_100","13_3028_6421_2_8_100","13_3031_6423_2_8_100","13_3029_6423_2_8_100","13_3032_6422_2_8_100","13_3028_6422_2_8_100","13_3032_6420_2_8_100","13_3028_6420_2_8_100","13_3032_6423_2_8_100","13_3028_6423_2_8_100","13_3033_6421_2_8_100","13_3027_6421_2_8_100","13_3033_6422_2_8_100","13_3027_6422_2_8_100","13_3033_6420_2_8_100"],"v":"8e91a4eb7ac2fc366cc50688c44e402b12082b04"}'
p103
ssS'url'
p104
S'https://www.ingress.com/r/getEntities'
p105
sS'bodySize'
p106
I636
sS'queryString'
p107
(lp108
sS'method'
p109
g61
sS'headersSize'
p110
I-1
sS'httpVersion'
p111
S'unknown'
p112
ssS'response'
p113
(dp114
S'status'
p115
I200
sg13
(lp116
(dp117
g16
S'date'
p118
sg18
S'Tue, 05 Jan 2016 00:14:11 GMT'
p119
sa(dp120
g16
S'content-encoding'
p121
sg18
S'gzip'
p122
sa(dp123
g16
S'server'
p124
sg18
S'Google Frontend'
p125
sa(dp126
g16
S'vary'
p127
sg18
S'Accept-Encoding'
p128
sa(dp129
g16
g39
sg18
S'application/json'
p130
sa(dp131
g16
g115
sg18
S'200'
p132
sa(dp133
g16
S'cache-control'
p134
sg18
S'private'
p135
sa(dp136
g16
S'alt-svc'
p137
sg18
S'quic=":443"; ma=604800; v="30,29,28,27,26,25"'
p138
sa(dp139
g16
g57
sg18
S'256305'
p140
sasg62
(lp141
sS'_transferSize'
p142
I256559
sS'redirectURL'
p143
S''
p144
sS'statusText'
p145
S'OK'
p146
sS'content'
p147
(dp148
g101
g130
sS'size'
p149
I1043690
ssg106
I-1
sg110
I-1
sg111
g112
ssS'timings'
p150
(dp151
S'receive'
p152
F261.28600002266467
sS'send'
p153
F0.49599999329076017
sS'ssl'
p154
I-1
sS'connect'
p155
I-1
sS'dns'
p156
I-1
sS'blocked'
p157
F4.06200002180412
sS'wait'
p158
F301.5649999724701
ssa(dp159
g2
g3
sg4
(dp160
sg6
g7
sg8
S'2016-01-05T00:14:10.955Z'
p161
sg10
F3870.4910000087693
sg11
(dp162
g13
(lp163
(dp164
g16
g17
sg18
g19
sa(dp165
g16
g21
sg18
g22
sa(dp166
g16
g24
sg18
g25
sa(dp167
g16
g27
sg18
g28
sa(dp168
g16
g30
sg18
g31
sa(dp169
g16
g33
sg18
g34
sa(dp170
g16
g36
sg18
g37
sa(dp171
g16
g39
sg18
g40
sa(dp172
g16
g42
sg18
g43
sa(dp173
g16
g45
sg18
g46
sa(dp174
g16
g48
sg18
g49
sa(dp175
g16
g51
sg18
g52
sa(dp176
g16
g54
sg18
g55
sa(dp177
g16
g57
sg18
S'130'
p178
sa(dp179
g16
g60
sg18
g61
sasg62
(lp180
(dp181
g65
I00
sg66
Nsg16
g67
sg18
g68
sg69
I00
sa(dp182
g65
I00
sg66
Nsg16
g71
sg18
g72
sg69
I00
sa(dp183
g65
I00
sg66
Nsg16
g74
sg18
g75
sg69
I00
sa(dp184
g65
I00
sg66
Nsg16
g77
sg18
g37
sg69
I00
sa(dp185
g65
I00
sg66
Nsg16
g79
sg18
g80
sg69
I00
sa(dp186
g65
I00
sg66
Nsg16
g82
sg18
g83
sg69
I00
sa(dp187
g65
I00
sg66
Nsg16
g85
sg18
g86
sg69
I00
sa(dp188
g65
I00
sg66
Nsg16
g88
sg18
g89
sg69
I00
sa(dp189
g65
I00
sg66
Nsg16
g91
sg18
g92
sg69
I00
sa(dp190
g65
I00
sg66
Nsg16
g94
sg18
g95
sg69
I00
sa(dp191
g65
I00
sg66
Nsg16
g97
sg18
g98
sg69
I00
sasg99
(dp192
g101
g40
sg102
S'{"tileKeys":["13_3027_6420_2_8_100","13_3033_6423_2_8_100","13_3027_6423_2_8_100"],"v":"8e91a4eb7ac2fc366cc50688c44e402b12082b04"}'
p193
ssg104
g105
sg106
I130
sg107
(lp194
sg109
g61
sg110
I-1
sg111
g112
ssg113
(dp195
g115
I200
sg13
(lp196
(dp197
g16
g118
sg18
S'Tue, 05 Jan 2016 00:14:14 GMT'
p198
sa(dp199
g16
g121
sg18
g122
sa(dp200
g16
g124
sg18
g125
sa(dp201
g16
g127
sg18
g128
sa(dp202
g16
g39
sg18
g130
sa(dp203
g16
g115
sg18
g132
sa(dp204
g16
g134
sg18
g135
sa(dp205
g16
g137
sg18
g138
sa(dp206
g16
g57
sg18
S'37105'
p207
sasg62
(lp208
sg142
I37164
sg143
g144
sg145
g146
sg147
(dp209
g101
g130
sg149
I137935
ssg106
I-1
sg110
I-1
sg111
g112
ssg150
(dp210
g152
F32.39999996730921
sg153
F0.42500003473833026
sg154
I-1
sg155
I-1
sg156
I-1
sg157
F2.72200000472367
sg158
F3834.944000001998
ssa(dp211
g2
g3
sg4
(dp212
sg6
g7
sg8
S'2016-01-05T00:14:11.542Z'
p213
sg10
F7215.548000007402
sg11
(dp214
g13
(lp215
(dp216
g16
g17
sg18
g19
sa(dp217
g16
g21
sg18
g22
sa(dp218
g16
g24
sg18
g25
sa(dp219
g16
g27
sg18
g28
sa(dp220
g16
g30
sg18
g31
sa(dp221
g16
g33
sg18
g34
sa(dp222
g16
g36
sg18
g37
sa(dp223
g16
g39
sg18
g40
sa(dp224
g16
g42
sg18
g43
sa(dp225
g16
g45
sg18
g46
sa(dp226
g16
g48
sg18
g49
sa(dp227
g16
g51
sg18
g52
sa(dp228
g16
g54
sg18
g55
sa(dp229
g16
g57
sg18
S'176'
p230
sa(dp231
g16
g60
sg18
g61
sasg62
(lp232
(dp233
g65
I00
sg66
Nsg16
g67
sg18
g68
sg69
I00
sa(dp234
g65
I00
sg66
Nsg16
g71
sg18
g72
sg69
I00
sa(dp235
g65
I00
sg66
Nsg16
g74
sg18
g75
sg69
I00
sa(dp236
g65
I00
sg66
Nsg16
g77
sg18
g37
sg69
I00
sa(dp237
g65
I00
sg66
Nsg16
g79
sg18
g80
sg69
I00
sa(dp238
g65
I00
sg66
Nsg16
g82
sg18
g83
sg69
I00
sa(dp239
g65
I00
sg66
Nsg16
g85
sg18
g86
sg69
I00
sa(dp240
g65
I00
sg66
Nsg16
g88
sg18
g89
sg69
I00
sa(dp241
g65
I00
sg66
Nsg16
g91
sg18
g92
sg69
I00
sa(dp242
g65
I00
sg66
Nsg16
g94
sg18
g95
sg69
I00
sa(dp243
g65
I00
sg66
Nsg16
g97
sg18
g98
sg69
I00
sasg99
(dp244
g101
g40
sg102
S'{"tileKeys":["13_3030_6421_2_8_100","13_3029_6423_2_8_100","13_3031_6420_2_8_100","13_3033_6422_2_8_100","13_3028_6422_2_8_100"],"v":"8e91a4eb7ac2fc366cc50688c44e402b12082b04"}'
p245
ssg104
g105
sg106
I176
sg107
(lp246
sg109
g61
sg110
I-1
sg111
g112
ssg113
(dp247
g115
I200
sg13
(lp248
(dp249
g16
g118
sg18
S'Tue, 05 Jan 2016 00:14:18 GMT'
p250
sa(dp251
g16
g121
sg18
g122
sa(dp252
g16
g124
sg18
g125
sa(dp253
g16
g127
sg18
g128
sa(dp254
g16
g39
sg18
g130
sa(dp255
g16
g115
sg18
g132
sa(dp256
g16
g134
sg18
g135
sa(dp257
g16
g137
sg18
g138
sa(dp258
g16
g57
sg18
S'47669'
p259
sasg62
(lp260
sg142
I47751
sg143
g144
sg145
g146
sg147
(dp261
g101
g130
sg149
I182376
ssg106
I-1
sg110
I-1
sg111
g112
ssg150
(dp262
g152
F30.88999999454245
sg153
F0.1780000166036202
sg154
I-1
sg155
I-1
sg156
I-1
sg157
F1.07100000604987
sg158
F7183.408999990206
ssa.